target datalayout = "e-m:e-p270:32:32-p271:32:32-p272:64:64-i64:64-i128:128-f80:128-n8:16:32:64-S128"
target triple = "x86_64-pc-linux-gnu"

; Function Attrs: nounwind uwtable
define internal i32 @ColorTransformDelta(i8 noundef signext %0, i8 noundef signext %1) #0 {
  %3 = alloca i8, align 1
  %4 = alloca i8, align 1
  store i8 %0, ptr %3, align 1
  store i8 %1, ptr %4, align 1
  %5 = load i8, ptr %3, align 1
  %6 = sext i8 %5 to i32
  %7 = load i8, ptr %4, align 1
  %8 = sext i8 %7 to i32
  %9 = mul nsw i32 %6, %8
  %10 = ashr i32 %9, 5
  ret i32 %10
}

; Function Attrs: nounwind uwtable
define internal signext i8 @U32ToS8(i32 noundef %0) #0 {
  %2 = alloca i32, align 4
  store i32 %0, ptr %2, align 4
  %3 = load i32, ptr %2, align 4
  %4 = and i32 %3, 255
  %5 = trunc i32 %4 to i8
  ret i8 %5
}

; Function Attrs: nounwind uwtable
define internal zeroext i8 @TransformColorRed(i8 noundef zeroext %0, i32 noundef %1) #0 {
  %3 = alloca i8, align 1
  %4 = alloca i32, align 4
  %5 = alloca i8, align 1
  %6 = alloca i32, align 4
  store i8 %0, ptr %3, align 1
  store i32 %1, ptr %4, align 4
  %7 = load i32, ptr %4, align 4
  %8 = lshr i32 %7, 8
  %9 = call signext i8 @U32ToS8(i32 noundef %8)
  store i8 %9, ptr %5, align 1
  %10 = load i32, ptr %4, align 4
  %11 = lshr i32 %10, 16
  store i32 %11, ptr %6, align 4
  %12 = load i8, ptr %3, align 1
  %13 = load i8, ptr %5, align 1
  %14 = call i32 @ColorTransformDelta(i8 noundef signext %12, i8 noundef signext %13)
  %15 = load i32, ptr %6, align 4
  %16 = sub nsw i32 %15, %14
  store i32 %16, ptr %6, align 4
  %17 = load i32, ptr %6, align 4
  %18 = and i32 %17, 255
  %19 = trunc i32 %18 to i8
  ret i8 %19
}

; Function Attrs: nounwind uwtable
define hidden void @VP8LCollectColorRedTransforms_C(ptr noundef %0, i32 noundef %1, i32 noundef %2, i32 noundef %3, i32 noundef %4, ptr noundef %5) #0 {
  %7 = alloca ptr, align 8
  %8 = alloca i32, align 4
  %9 = alloca i32, align 4
  %10 = alloca i32, align 4
  %11 = alloca i32, align 4
  %12 = alloca ptr, align 8
  %13 = alloca i32, align 4
  store ptr %0, ptr %7, align 8
  store i32 %1, ptr %8, align 4
  store i32 %2, ptr %9, align 4
  store i32 %3, ptr %10, align 4
  store i32 %4, ptr %11, align 4
  store ptr %5, ptr %12, align 8
  br label %14

14:                                               ; preds = %40, %6
  %15 = load i32, ptr %10, align 4
  %16 = add nsw i32 %15, -1
  store i32 %16, ptr %10, align 4
  %17 = icmp sgt i32 %15, 0
  br i1 %17, label %18, label %45

18:                                               ; preds = %14
  store i32 0, ptr %13, align 4
  br label %19

19:                                               ; preds = %37, %18
  %20 = load i32, ptr %13, align 4
  %21 = load i32, ptr %9, align 4
  %22 = icmp slt i32 %20, %21
  br i1 %22, label %23, label %40

23:                                               ; preds = %19
  %24 = load ptr, ptr %12, align 8
  %25 = load i32, ptr %11, align 4
  %26 = trunc i32 %25 to i8
  %27 = load ptr, ptr %7, align 8
  %28 = load i32, ptr %13, align 4
  %29 = sext i32 %28 to i64
  %30 = getelementptr inbounds i32, ptr %27, i64 %29
  %31 = load i32, ptr %30, align 4
  %32 = call zeroext i8 @TransformColorRed(i8 noundef zeroext %26, i32 noundef %31)
  %33 = zext i8 %32 to i64
  %34 = getelementptr inbounds i32, ptr %24, i64 %33
  %35 = load i32, ptr %34, align 4
  %36 = add i32 %35, 1
  store i32 %36, ptr %34, align 4
  br label %37

37:                                               ; preds = %23
  %38 = load i32, ptr %13, align 4
  %39 = add nsw i32 %38, 1
  store i32 %39, ptr %13, align 4
  br label %19, !llvm.loop !8

40:                                               ; preds = %19
  %41 = load i32, ptr %8, align 4
  %42 = load ptr, ptr %7, align 8
  %43 = sext i32 %41 to i64
  %44 = getelementptr inbounds i32, ptr %42, i64 %43
  store ptr %44, ptr %7, align 8
  br label %14, !llvm.loop !9

45:                                               ; preds = %14
  ret void
}