; Function Attrs: nofree norecurse nosync nounwind memory(read, argmem: readwrite, inaccessiblemem: none) uwtable
define hidden void @VP8LCollectColorRedTransforms_C(ptr nocapture noundef readonly %0, i32 noundef %1, i32 noundef %2, i32 noundef %3, i32 noundef %4, ptr nocapture noundef %5) #3 {
  %7 = icmp sgt i32 %3, 0
  br i1 %7, label %.preheader.lr.ph, label %._crit_edge13

.preheader.lr.ph:                                 ; preds = %6
  %8 = icmp sgt i32 %2, 0
  %sext = shl i32 %4, 24
  %9 = ashr exact i32 %sext, 24
  %10 = sext i32 %1 to i64
  br i1 %8, label %.preheader.us.preheader, label %._crit_edge13

.preheader.us.preheader:                          ; preds = %.preheader.lr.ph
  %wide.trip.count = zext nneg i32 %2 to i64
  br label %.preheader.us

.preheader.us:                                    ; preds = %.preheader.us.preheader, %._crit_edge.us
  %.in = phi i32 [ %11, %._crit_edge.us ], [ %3, %.preheader.us.preheader ]
  %.0912.us = phi ptr [ %26, %._crit_edge.us ], [ %0, %.preheader.us.preheader ]
  %11 = add nsw i32 %.in, -1
  br label %12

12:                                               ; preds = %.preheader.us, %12
  %indvars.iv = phi i64 [ 0, %.preheader.us ], [ %indvars.iv.next, %12 ]
  %13 = getelementptr inbounds i32, ptr %.0912.us, i64 %indvars.iv
  %14 = load i32, ptr %13, align 4
  %15 = lshr i32 %14, 16
  %16 = shl i32 %14, 16
  %17 = ashr i32 %16, 24
  %18 = mul nsw i32 %17, %9
  %19 = lshr i32 %18, 5
  %20 = sub nsw i32 %15, %19
  %21 = and i32 %20, 255
  %22 = zext nneg i32 %21 to i64
  %23 = getelementptr inbounds i32, ptr %5, i64 %22
  %24 = load i32, ptr %23, align 4
  %25 = add i32 %24, 1
  store i32 %25, ptr %23, align 4
  %indvars.iv.next = add nuw nsw i64 %indvars.iv, 1
  %exitcond.not = icmp eq i64 %indvars.iv.next, %wide.trip.count
  br i1 %exitcond.not, label %._crit_edge.us, label %12, !llvm.loop !8

._crit_edge.us:                                   ; preds = %12
  %26 = getelementptr inbounds i32, ptr %.0912.us, i64 %10
  %27 = icmp sgt i32 %.in, 1
  br i1 %27, label %.preheader.us, label %._crit_edge13, !llvm.loop !9

._crit_edge13:                                    ; preds = %._crit_edge.us, %.preheader.lr.ph, %6
  ret void
}